target datalayout = "e-m:e-p270:32:32-p271:32:32-p272:64:64-i64:64-i128:128-f80:128-n8:16:32:64-S128"
target triple = "x86_64-pc-linux-gnu"

%struct.ForEachState = type { ptr, i32 }
%struct.Node = type { i32 }
%struct.List = type { i32, i32, i32, ptr, [0 x %union.ListCell] }
%union.ListCell = type { ptr }
%struct.RelOptInfo = type { i32, i32, ptr, double, i8, i8, i8, ptr, ptr, ptr, ptr, ptr, ptr, ptr, ptr, ptr, ptr, i32, i32, i32, i16, i16, ptr, ptr, ptr, ptr, ptr, ptr, ptr, ptr, i32, double, double, ptr, ptr, ptr, i32, i32, i32, i32, i8, ptr, ptr, ptr, ptr, ptr, %struct.QualCost, i32, ptr, i8, i8, ptr, ptr, ptr, ptr, i32, ptr, i8, ptr, ptr, ptr, ptr, ptr, ptr }
%struct.QualCost = type { double, double }
%struct.Var = type { %struct.Expr, i32, i16, i32, i32, i32, ptr, i32, i32, i32, i16, i32 }
%struct.Expr = type { i32 }
%struct.PathTarget = type { i32, ptr, ptr, %struct.QualCost, i32, i32 }
%struct.PlaceHolderInfo = type { i32, i32, ptr, ptr, ptr, ptr, i32 }

@.str = private unnamed_addr constant [27 x i8] c"unrecognized node type: %d\00", align 1
@.str.1 = private unnamed_addr constant [12 x i8] c"initsplan.c\00", align 1
@__func__.add_vars_to_targetlist = private unnamed_addr constant [23 x i8] c"add_vars_to_targetlist\00", align 1

; Function Attrs: nounwind uwtable
define dso_local void @add_vars_to_targetlist(ptr noundef %0, ptr noundef %1, ptr noundef %2) #0 {
  %4 = alloca ptr, align 8
  %5 = alloca ptr, align 8
  %6 = alloca ptr, align 8
  %7 = alloca ptr, align 8
  %8 = alloca %struct.ForEachState, align 8
  %9 = alloca i32, align 4
  %10 = alloca ptr, align 8
  %11 = alloca ptr, align 8
  %12 = alloca ptr, align 8
  %13 = alloca i32, align 4
  %14 = alloca ptr, align 8
  %15 = alloca ptr, align 8
  store ptr %0, ptr %4, align 8
  store ptr %1, ptr %5, align 8
  store ptr %2, ptr %6, align 8
  call void @llvm.lifetime.start.p0(i64 8, ptr %7) #6
  call void @llvm.lifetime.start.p0(i64 16, ptr %8) #6
  %16 = getelementptr inbounds nuw %struct.ForEachState, ptr %8, i32 0, i32 0
  %17 = load ptr, ptr %5, align 8
  store ptr %17, ptr %16, align 8
  %18 = getelementptr inbounds nuw %struct.ForEachState, ptr %8, i32 0, i32 1
  store i32 0, ptr %18, align 8
  %19 = getelementptr i8, ptr %8, i64 12
  call void @llvm.memset.p0.i64(ptr align 4 %19, i8 0, i64 4, i1 false)
  br label %20

20:                                               ; preds = %156, %3
  %21 = getelementptr inbounds nuw %struct.ForEachState, ptr %8, i32 0, i32 0
  %22 = load ptr, ptr %21, align 8
  %23 = icmp ne ptr %22, null
  br i1 %23, label %24, label %41

24:                                               ; preds = %20
  %25 = getelementptr inbounds nuw %struct.ForEachState, ptr %8, i32 0, i32 1
  %26 = load i32, ptr %25, align 8
  %27 = getelementptr inbounds nuw %struct.ForEachState, ptr %8, i32 0, i32 0
  %28 = load ptr, ptr %27, align 8
  %29 = getelementptr inbounds nuw %struct.List, ptr %28, i32 0, i32 1
  %30 = load i32, ptr %29, align 4
  %31 = icmp slt i32 %26, %30
  br i1 %31, label %32, label %41

32:                                               ; preds = %24
  %33 = getelementptr inbounds nuw %struct.ForEachState, ptr %8, i32 0, i32 0
  %34 = load ptr, ptr %33, align 8
  %35 = getelementptr inbounds nuw %struct.List, ptr %34, i32 0, i32 3
  %36 = load ptr, ptr %35, align 8
  %37 = getelementptr inbounds nuw %struct.ForEachState, ptr %8, i32 0, i32 1
  %38 = load i32, ptr %37, align 8
  %39 = sext i32 %38 to i64
  %40 = getelementptr inbounds %union.ListCell, ptr %36, i64 %39
  store ptr %40, ptr %7, align 8
  br label %42

41:                                               ; preds = %24, %20
  store ptr null, ptr %7, align 8
  br label %42

42:                                               ; preds = %41, %32
  %43 = phi i32 [ 1, %32 ], [ 0, %41 ]
  %44 = icmp ne i32 %43, 0
  br i1 %44, label %46, label %45

45:                                               ; preds = %42
  store i32 2, ptr %9, align 4
  call void @llvm.lifetime.end.p0(i64 16, ptr %8) #6
  br label %160

46:                                               ; preds = %42
  call void @llvm.lifetime.start.p0(i64 8, ptr %10) #6
  %47 = load ptr, ptr %7, align 8
  %48 = load ptr, ptr %47, align 8
  store ptr %48, ptr %10, align 8
  %49 = load ptr, ptr %10, align 8
  %50 = getelementptr inbounds nuw %struct.Node, ptr %49, i32 0, i32 0
  %51 = load i32, ptr %50, align 4
  %52 = icmp eq i32 %51, 6
  br i1 %52, label %53, label %120

53:                                               ; preds = %46
  call void @llvm.lifetime.start.p0(i64 8, ptr %11) #6
  %54 = load ptr, ptr %10, align 8
  store ptr %54, ptr %11, align 8
  call void @llvm.lifetime.start.p0(i64 8, ptr %12) #6
  %55 = load ptr, ptr %4, align 8
  %56 = load ptr, ptr %11, align 8
  %57 = getelementptr inbounds nuw %struct.Var, ptr %56, i32 0, i32 1
  %58 = load i32, ptr %57, align 4
  %59 = call ptr @find_base_rel(ptr noundef %55, i32 noundef %58)
  store ptr %59, ptr %12, align 8
  call void @llvm.lifetime.start.p0(i64 4, ptr %13) #6
  %60 = load ptr, ptr %11, align 8
  %61 = getelementptr inbounds nuw %struct.Var, ptr %60, i32 0, i32 2
  %62 = load i16, ptr %61, align 8
  %63 = sext i16 %62 to i32
  store i32 %63, ptr %13, align 4
  %64 = load ptr, ptr %6, align 8
  %65 = load ptr, ptr %12, align 8
  %66 = getelementptr inbounds nuw %struct.RelOptInfo, ptr %65, i32 0, i32 2
  %67 = load ptr, ptr %66, align 8
  %68 = call zeroext i1 @bms_is_subset(ptr noundef %64, ptr noundef %67)
  br i1 %68, label %69, label %70

69:                                               ; preds = %53
  store i32 4, ptr %9, align 4
  br label %117

70:                                               ; preds = %53
  %71 = load ptr, ptr %12, align 8
  %72 = getelementptr inbounds nuw %struct.RelOptInfo, ptr %71, i32 0, i32 20
  %73 = load i16, ptr %72, align 4
  %74 = sext i16 %73 to i32
  %75 = load i32, ptr %13, align 4
  %76 = sub i32 %75, %74
  store i32 %76, ptr %13, align 4
  %77 = load ptr, ptr %12, align 8
  %78 = getelementptr inbounds nuw %struct.RelOptInfo, ptr %77, i32 0, i32 22
  %79 = load ptr, ptr %78, align 8
  %80 = load i32, ptr %13, align 4
  %81 = sext i32 %80 to i64
  %82 = getelementptr inbounds ptr, ptr %79, i64 %81
  %83 = load ptr, ptr %82, align 8
  %84 = icmp eq ptr %83, null
  br i1 %84, label %85, label %101

85:                                               ; preds = %70
  %86 = load ptr, ptr %11, align 8
  %87 = call ptr @copyObjectImpl(ptr noundef %86)
  store ptr %87, ptr %11, align 8
  %88 = load ptr, ptr %11, align 8
  %89 = getelementptr inbounds nuw %struct.Var, ptr %88, i32 0, i32 6
  store ptr null, ptr %89, align 8
  %90 = load ptr, ptr %12, align 8
  %91 = getelementptr inbounds nuw %struct.RelOptInfo, ptr %90, i32 0, i32 7
  %92 = load ptr, ptr %91, align 8
  %93 = getelementptr inbounds nuw %struct.PathTarget, ptr %92, i32 0, i32 1
  %94 = load ptr, ptr %93, align 8
  %95 = load ptr, ptr %11, align 8
  %96 = call ptr @lappend(ptr noundef %94, ptr noundef %95)
  %97 = load ptr, ptr %12, align 8
  %98 = getelementptr inbounds nuw %struct.RelOptInfo, ptr %97, i32 0, i32 7
  %99 = load ptr, ptr %98, align 8
  %100 = getelementptr inbounds nuw %struct.PathTarget, ptr %99, i32 0, i32 1
  store ptr %96, ptr %100, align 8
  br label %101

101:                                              ; preds = %85, %70
  %102 = load ptr, ptr %12, align 8
  %103 = getelementptr inbounds nuw %struct.RelOptInfo, ptr %102, i32 0, i32 22
  %104 = load ptr, ptr %103, align 8
  %105 = load i32, ptr %13, align 4
  %106 = sext i32 %105 to i64
  %107 = getelementptr inbounds ptr, ptr %104, i64 %106
  %108 = load ptr, ptr %107, align 8
  %109 = load ptr, ptr %6, align 8
  %110 = call ptr @bms_add_members(ptr noundef %108, ptr noundef %109)
  %111 = load ptr, ptr %12, align 8
  %112 = getelementptr inbounds nuw %struct.RelOptInfo, ptr %111, i32 0, i32 22
  %113 = load ptr, ptr %112, align 8
  %114 = load i32, ptr %13, align 4
  %115 = sext i32 %114 to i64
  %116 = getelementptr inbounds ptr, ptr %113, i64 %115
  store ptr %110, ptr %116, align 8
  store i32 0, ptr %9, align 4
  br label %117

117:                                              ; preds = %101, %69
  call void @llvm.lifetime.end.p0(i64 4, ptr %13) #6
  call void @llvm.lifetime.end.p0(i64 8, ptr %12) #6
  call void @llvm.lifetime.end.p0(i64 8, ptr %11) #6
  %118 = load i32, ptr %9, align 4
  switch i32 %118, label %153 [
    i32 0, label %119
  ]

119:                                              ; preds = %117
  br label %152

120:                                              ; preds = %46
  %121 = load ptr, ptr %10, align 8
  %122 = getelementptr inbounds nuw %struct.Node, ptr %121, i32 0, i32 0
  %123 = load i32, ptr %122, align 4
  %124 = icmp eq i32 %123, 318
  br i1 %124, label %125, label %137

125:                                              ; preds = %120
  call void @llvm.lifetime.start.p0(i64 8, ptr %14) #6
  %126 = load ptr, ptr %10, align 8
  store ptr %126, ptr %14, align 8
  call void @llvm.lifetime.start.p0(i64 8, ptr %15) #6
  %127 = load ptr, ptr %4, align 8
  %128 = load ptr, ptr %14, align 8
  %129 = call ptr @find_placeholder_info(ptr noundef %127, ptr noundef %128)
  store ptr %129, ptr %15, align 8
  %130 = load ptr, ptr %15, align 8
  %131 = getelementptr inbounds nuw %struct.PlaceHolderInfo, ptr %130, i32 0, i32 5
  %132 = load ptr, ptr %131, align 8
  %133 = load ptr, ptr %6, align 8
  %134 = call ptr @bms_add_members(ptr noundef %132, ptr noundef %133)
  %135 = load ptr, ptr %15, align 8
  %136 = getelementptr inbounds nuw %struct.PlaceHolderInfo, ptr %135, i32 0, i32 5
  store ptr %134, ptr %136, align 8
  call void @llvm.lifetime.end.p0(i64 8, ptr %15) #6
  call void @llvm.lifetime.end.p0(i64 8, ptr %14) #6
  br label %151

137:                                              ; preds = %120
  br label %138

138:                                              ; preds = %137
  br i1 true, label %139, label %141

139:                                              ; preds = %138
  %140 = call zeroext i1 @errstart_cold(i32 noundef 21, ptr noundef null) #7
  br i1 %140, label %143, label %148

141:                                              ; preds = %138
  %142 = call zeroext i1 @errstart(i32 noundef 21, ptr noundef null)
  br i1 %142, label %143, label %148

143:                                              ; preds = %141, %139
  %144 = load ptr, ptr %10, align 8
  %145 = getelementptr inbounds nuw %struct.Node, ptr %144, i32 0, i32 0
  %146 = load i32, ptr %145, align 4
  %147 = call i32 (ptr, ...) @errmsg_internal(ptr noundef @.str, i32 noundef %146)
  call void @errfinish(ptr noundef @.str.1, i32 noundef 329, ptr noundef @__func__.add_vars_to_targetlist)
  br label %148

148:                                              ; preds = %143, %141, %139
  unreachable

149:                                              ; No predecessors!
  br label %150

150:                                              ; preds = %149
  br label %151

151:                                              ; preds = %150, %125
  br label %152

152:                                              ; preds = %151, %119
  store i32 0, ptr %9, align 4
  br label %153

153:                                              ; preds = %152, %117
  call void @llvm.lifetime.end.p0(i64 8, ptr %10) #6
  %154 = load i32, ptr %9, align 4
  switch i32 %154, label %161 [
    i32 0, label %155
    i32 4, label %156
  ]

155:                                              ; preds = %153
  br label %156

156:                                              ; preds = %155, %153
  %157 = getelementptr inbounds nuw %struct.ForEachState, ptr %8, i32 0, i32 1
  %158 = load i32, ptr %157, align 8
  %159 = add i32 %158, 1
  store i32 %159, ptr %157, align 8
  br label %20, !llvm.loop !9

160:                                              ; preds = %45
  call void @llvm.lifetime.end.p0(i64 8, ptr %7) #6
  ret void

161:                                              ; preds = %153
  unreachable
}