; Function Attrs: nounwind uwtable
define dso_local void @add_vars_to_targetlist(ptr noundef %0, ptr noundef readonly captures(address_is_null) %1, ptr noundef %2) local_unnamed_addr #0 {
  %.not = icmp eq ptr %1, null
  br i1 %.not, label %._crit_edge, label %.lr.ph

.lr.ph:                                           ; preds = %3
  %4 = getelementptr inbounds nuw i8, ptr %1, i64 4
  %5 = getelementptr inbounds nuw i8, ptr %1, i64 16
  %6 = load i32, ptr %4, align 4
  %7 = icmp sgt i32 %6, 0
  br i1 %7, label %.lr.ph46, label %._crit_edge

._crit_edge:                                      ; preds = %.critedge, %.lr.ph, %3
  ret void

.lr.ph46:                                         ; preds = %.lr.ph, %.critedge
  %indvars.iv45 = phi i64 [ %indvars.iv.next, %.critedge ], [ 0, %.lr.ph ]
  %8 = load ptr, ptr %5, align 8
  %9 = getelementptr inbounds nuw %union.ListCell, ptr %8, i64 %indvars.iv45
  %10 = load ptr, ptr %9, align 8
  %11 = load i32, ptr %10, align 4
  switch i32 %11, label %52 [
    i32 6, label %12
    i32 318, label %47
  ]

12:                                               ; preds = %.lr.ph46
  %13 = getelementptr inbounds nuw i8, ptr %10, i64 4
  %14 = load i32, ptr %13, align 4
  %15 = tail call ptr @find_base_rel(ptr noundef %0, i32 noundef %14) #7
  %16 = getelementptr inbounds nuw i8, ptr %10, i64 8
  %17 = load i16, ptr %16, align 8
  %18 = getelementptr inbounds nuw i8, ptr %15, i64 8
  %19 = load ptr, ptr %18, align 8
  %20 = tail call zeroext i1 @bms_is_subset(ptr noundef %2, ptr noundef %19) #7
  br i1 %20, label %.critedge, label %21

21:                                               ; preds = %12
  %22 = sext i16 %17 to i64
  %23 = getelementptr inbounds nuw i8, ptr %15, i64 124
  %24 = load i16, ptr %23, align 4
  %25 = sext i16 %24 to i64
  %26 = sub nsw i64 %22, %25
  %27 = getelementptr inbounds nuw i8, ptr %15, i64 128
  %28 = load ptr, ptr %27, align 8
  %29 = getelementptr inbounds ptr, ptr %28, i64 %26
  %30 = load ptr, ptr %29, align 8
  %31 = icmp eq ptr %30, null
  br i1 %31, label %32, label %42

32:                                               ; preds = %21
  %33 = tail call ptr @copyObjectImpl(ptr noundef nonnull %10) #7
  %34 = getelementptr inbounds nuw i8, ptr %33, i64 24
  store ptr null, ptr %34, align 8
  %35 = getelementptr inbounds nuw i8, ptr %15, i64 32
  %36 = load ptr, ptr %35, align 8
  %37 = getelementptr inbounds nuw i8, ptr %36, i64 8
  %38 = load ptr, ptr %37, align 8
  %39 = tail call ptr @lappend(ptr noundef %38, ptr noundef %33) #7
  %40 = load ptr, ptr %35, align 8
  %41 = getelementptr inbounds nuw i8, ptr %40, i64 8
  store ptr %39, ptr %41, align 8
  %.pre = load ptr, ptr %27, align 8
  %.phi.trans.insert = getelementptr inbounds ptr, ptr %.pre, i64 %26
  %.pre44 = load ptr, ptr %.phi.trans.insert, align 8
  br label %42

42:                                               ; preds = %32, %21
  %43 = phi ptr [ %.pre44, %32 ], [ %30, %21 ]
  %44 = tail call ptr @bms_add_members(ptr noundef %43, ptr noundef %2) #7
  %45 = load ptr, ptr %27, align 8
  %46 = getelementptr inbounds ptr, ptr %45, i64 %26
  store ptr %44, ptr %46, align 8
  br label %.critedge

47:                                               ; preds = %.lr.ph46
  %48 = tail call ptr @find_placeholder_info(ptr noundef %0, ptr noundef nonnull %10) #7
  %49 = getelementptr inbounds nuw i8, ptr %48, i64 32
  %50 = load ptr, ptr %49, align 8
  %51 = tail call ptr @bms_add_members(ptr noundef %50, ptr noundef %2) #7
  store ptr %51, ptr %49, align 8
  br label %.critedge

52:                                               ; preds = %.lr.ph46
  %53 = tail call zeroext i1 @errstart_cold(i32 noundef 21, ptr noundef null) #8
  tail call void @llvm.assume(i1 %53)
  %54 = load i32, ptr %10, align 4
  %55 = tail call i32 (ptr, ...) @errmsg_internal(ptr noundef nonnull @.str, i32 noundef %54) #7
  tail call void @errfinish(ptr noundef nonnull @.str.1, i32 noundef 329, ptr noundef nonnull @__func__.add_vars_to_targetlist) #7
  unreachable

.critedge:                                        ; preds = %42, %12, %47
  %indvars.iv.next = add nuw nsw i64 %indvars.iv45, 1
  %56 = load i32, ptr %4, align 4
  %57 = sext i32 %56 to i64
  %58 = icmp slt i64 %indvars.iv.next, %57
  br i1 %58, label %.lr.ph46, label %._crit_edge
}